target datalayout = "e-m:e-p270:32:32-p271:32:32-p272:64:64-i64:64-i128:128-f80:128-n8:16:32:64-S128"
target triple = "x86_64-pc-linux-gnu"

%struct.aiString = type { i32, [1024 x i8] }
%struct.aiAnimation = type { %struct.aiString, double, double, i32, ptr, i32, ptr, i32, ptr }

@.str.55 = private unnamed_addr constant [68 x i8] c"aiAnimation::mChannels is nullptr (aiAnimation::mNumChannels is %i)\00", align 1
@.str.56 = private unnamed_addr constant [86 x i8] c"aiAnimation::mMorphMeshChannels is nullptr (aiAnimation::mNumMorphMeshChannels is %i)\00", align 1
@.str.57 = private unnamed_addr constant [72 x i8] c"aiAnimation::mChannels[%i] is nullptr (aiAnimation::mNumChannels is %i)\00", align 1
@.str.58 = private unnamed_addr constant [90 x i8] c"aiAnimation::mMorphMeshChannels[%i] is nullptr (aiAnimation::mNumMorphMeshChannels is %i)\00", align 1
@.str.59 = private unnamed_addr constant [83 x i8] c"aiAnimation::mNumChannels is 0. At least one node animation channel must be there.\00", align 1
@.str.114 = private unnamed_addr constant [51 x i8] c"aiString::length is too large (%u, maximum is %lu)\00", align 1
@.str.115 = private unnamed_addr constant [66 x i8] c"aiString::data is invalid: the terminal zero is at a wrong offset\00", align 1
@.str.116 = private unnamed_addr constant [58 x i8] c"aiString::data is invalid. There is no terminal character\00", align 1

; Function Attrs: mustprogress uwtable
define hidden void @_ZN6Assimp17ValidateDSProcess8ValidateEPK8aiString(ptr noundef nonnull align 8 dereferenceable(32) %0, ptr noundef %1) #5 align 2 {
  %3 = alloca ptr, align 8
  %4 = alloca ptr, align 8
  %5 = alloca ptr, align 8
  store ptr %0, ptr %3, align 8
  store ptr %1, ptr %4, align 8
  %6 = load ptr, ptr %3, align 8
  %7 = load ptr, ptr %4, align 8
  %8 = getelementptr inbounds nuw %struct.aiString, ptr %7, i32 0, i32 0
  %9 = load i32, ptr %8, align 4
  %10 = zext i32 %9 to i64
  %11 = icmp ugt i64 %10, 1024
  br i1 %11, label %12, label %16

12:                                               ; preds = %2
  %13 = load ptr, ptr %4, align 8
  %14 = getelementptr inbounds nuw %struct.aiString, ptr %13, i32 0, i32 0
  %15 = load i32, ptr %14, align 4
  call void (ptr, ptr, ...) @_ZN6Assimp17ValidateDSProcess11ReportErrorEPKcz(ptr noundef nonnull align 8 dereferenceable(32) %6, ptr noundef @.str.114, i32 noundef %15, i64 noundef 1024) #20
  unreachable

16:                                               ; preds = %2
  call void @llvm.lifetime.start.p0(i64 8, ptr %5) #19
  %17 = load ptr, ptr %4, align 8
  %18 = getelementptr inbounds nuw %struct.aiString, ptr %17, i32 0, i32 1
  %19 = getelementptr inbounds [1024 x i8], ptr %18, i64 0, i64 0
  store ptr %19, ptr %5, align 8
  br label %20

20:                                               ; preds = %49, %16
  br label %21

21:                                               ; preds = %20
  %22 = load ptr, ptr %5, align 8
  %23 = load i8, ptr %22, align 1
  %24 = sext i8 %23 to i32
  %25 = icmp eq i32 0, %24
  br i1 %25, label %26, label %41

26:                                               ; preds = %21
  %27 = load ptr, ptr %4, align 8
  %28 = getelementptr inbounds nuw %struct.aiString, ptr %27, i32 0, i32 0
  %29 = load i32, ptr %28, align 4
  %30 = load ptr, ptr %5, align 8
  %31 = load ptr, ptr %4, align 8
  %32 = getelementptr inbounds nuw %struct.aiString, ptr %31, i32 0, i32 1
  %33 = getelementptr inbounds [1024 x i8], ptr %32, i64 0, i64 0
  %34 = ptrtoint ptr %30 to i64
  %35 = ptrtoint ptr %33 to i64
  %36 = sub i64 %34, %35
  %37 = trunc i64 %36 to i32
  %38 = icmp ne i32 %29, %37
  br i1 %38, label %39, label %40

39:                                               ; preds = %26
  call void (ptr, ptr, ...) @_ZN6Assimp17ValidateDSProcess11ReportErrorEPKcz(ptr noundef nonnull align 8 dereferenceable(32) %6, ptr noundef @.str.115) #20
  unreachable

40:                                               ; preds = %26
  br label %52

41:                                               ; preds = %21
  %42 = load ptr, ptr %5, align 8
  %43 = load ptr, ptr %4, align 8
  %44 = getelementptr inbounds nuw %struct.aiString, ptr %43, i32 0, i32 1
  %45 = getelementptr inbounds nuw [1024 x i8], ptr %44, i64 0, i64 1024
  %46 = icmp uge ptr %42, %45
  br i1 %46, label %47, label %48

47:                                               ; preds = %41
  call void (ptr, ptr, ...) @_ZN6Assimp17ValidateDSProcess11ReportErrorEPKcz(ptr noundef nonnull align 8 dereferenceable(32) %6, ptr noundef @.str.116) #20
  unreachable

48:                                               ; preds = %41
  br label %49

49:                                               ; preds = %48
  %50 = load ptr, ptr %5, align 8
  %51 = getelementptr inbounds nuw i8, ptr %50, i32 1
  store ptr %51, ptr %5, align 8
  br label %20, !llvm.loop !24

52:                                               ; preds = %40
  call void @llvm.lifetime.end.p0(i64 8, ptr %5) #19
  ret void
}

; Function Attrs: mustprogress uwtable
define hidden void @_ZN6Assimp17ValidateDSProcess8ValidateEPK11aiAnimation(ptr noundef nonnull align 8 dereferenceable(32) %0, ptr noundef %1) #5 align 2 {
  %3 = alloca ptr, align 8
  %4 = alloca ptr, align 8
  %5 = alloca i32, align 4
  %6 = alloca i32, align 4
  store ptr %0, ptr %3, align 8
  store ptr %1, ptr %4, align 8
  %7 = load ptr, ptr %3, align 8
  %8 = load ptr, ptr %4, align 8
  %9 = getelementptr inbounds nuw %struct.aiAnimation, ptr %8, i32 0, i32 0
  call void @_ZN6Assimp17ValidateDSProcess8ValidateEPK8aiString(ptr noundef nonnull align 8 dereferenceable(32) %7, ptr noundef %9)
  %10 = load ptr, ptr %4, align 8
  %11 = getelementptr inbounds nuw %struct.aiAnimation, ptr %10, i32 0, i32 3
  %12 = load i32, ptr %11, align 8
  %13 = icmp ne i32 %12, 0
  br i1 %13, label %19, label %14

14:                                               ; preds = %2
  %15 = load ptr, ptr %4, align 8
  %16 = getelementptr inbounds nuw %struct.aiAnimation, ptr %15, i32 0, i32 7
  %17 = load i32, ptr %16, align 8
  %18 = icmp ne i32 %17, 0
  br i1 %18, label %19, label %116

19:                                               ; preds = %14, %2
  %20 = load ptr, ptr %4, align 8
  %21 = getelementptr inbounds nuw %struct.aiAnimation, ptr %20, i32 0, i32 4
  %22 = load ptr, ptr %21, align 8
  %23 = icmp ne ptr %22, null
  br i1 %23, label %33, label %24

24:                                               ; preds = %19
  %25 = load ptr, ptr %4, align 8
  %26 = getelementptr inbounds nuw %struct.aiAnimation, ptr %25, i32 0, i32 3
  %27 = load i32, ptr %26, align 8
  %28 = icmp ne i32 %27, 0
  br i1 %28, label %29, label %33

29:                                               ; preds = %24
  %30 = load ptr, ptr %4, align 8
  %31 = getelementptr inbounds nuw %struct.aiAnimation, ptr %30, i32 0, i32 3
  %32 = load i32, ptr %31, align 8
  call void (ptr, ptr, ...) @_ZN6Assimp17ValidateDSProcess11ReportErrorEPKcz(ptr noundef nonnull align 8 dereferenceable(32) %7, ptr noundef @.str.55, i32 noundef %32) #20
  unreachable

33:                                               ; preds = %24, %19
  %34 = load ptr, ptr %4, align 8
  %35 = getelementptr inbounds nuw %struct.aiAnimation, ptr %34, i32 0, i32 8
  %36 = load ptr, ptr %35, align 8
  %37 = icmp ne ptr %36, null
  br i1 %37, label %47, label %38

38:                                               ; preds = %33
  %39 = load ptr, ptr %4, align 8
  %40 = getelementptr inbounds nuw %struct.aiAnimation, ptr %39, i32 0, i32 7
  %41 = load i32, ptr %40, align 8
  %42 = icmp ne i32 %41, 0
  br i1 %42, label %43, label %47

43:                                               ; preds = %38
  %44 = load ptr, ptr %4, align 8
  %45 = getelementptr inbounds nuw %struct.aiAnimation, ptr %44, i32 0, i32 7
  %46 = load i32, ptr %45, align 8
  call void (ptr, ptr, ...) @_ZN6Assimp17ValidateDSProcess11ReportErrorEPKcz(ptr noundef nonnull align 8 dereferenceable(32) %7, ptr noundef @.str.56, i32 noundef %46) #20
  unreachable

47:                                               ; preds = %38, %33
  call void @llvm.lifetime.start.p0(i64 4, ptr %5) #19
  store i32 0, ptr %5, align 4
  br label %48

48:                                               ; preds = %78, %47
  %49 = load i32, ptr %5, align 4
  %50 = load ptr, ptr %4, align 8
  %51 = getelementptr inbounds nuw %struct.aiAnimation, ptr %50, i32 0, i32 3
  %52 = load i32, ptr %51, align 8
  %53 = icmp ult i32 %49, %52
  br i1 %53, label %55, label %54

54:                                               ; preds = %48
  call void @llvm.lifetime.end.p0(i64 4, ptr %5) #19
  br label %81

55:                                               ; preds = %48
  %56 = load ptr, ptr %4, align 8
  %57 = getelementptr inbounds nuw %struct.aiAnimation, ptr %56, i32 0, i32 4
  %58 = load ptr, ptr %57, align 8
  %59 = load i32, ptr %5, align 4
  %60 = zext i32 %59 to i64
  %61 = getelementptr inbounds nuw ptr, ptr %58, i64 %60
  %62 = load ptr, ptr %61, align 8
  %63 = icmp ne ptr %62, null
  br i1 %63, label %69, label %64

64:                                               ; preds = %55
  %65 = load i32, ptr %5, align 4
  %66 = load ptr, ptr %4, align 8
  %67 = getelementptr inbounds nuw %struct.aiAnimation, ptr %66, i32 0, i32 3
  %68 = load i32, ptr %67, align 8
  call void (ptr, ptr, ...) @_ZN6Assimp17ValidateDSProcess11ReportErrorEPKcz(ptr noundef nonnull align 8 dereferenceable(32) %7, ptr noundef @.str.57, i32 noundef %65, i32 noundef %68) #20
  unreachable

69:                                               ; preds = %55
  %70 = load ptr, ptr %4, align 8
  %71 = load ptr, ptr %4, align 8
  %72 = getelementptr inbounds nuw %struct.aiAnimation, ptr %71, i32 0, i32 4
  %73 = load ptr, ptr %72, align 8
  %74 = load i32, ptr %5, align 4
  %75 = zext i32 %74 to i64
  %76 = getelementptr inbounds nuw ptr, ptr %73, i64 %75
  %77 = load ptr, ptr %76, align 8
  call void @_ZN6Assimp17ValidateDSProcess8ValidateEPK11aiAnimationPK10aiNodeAnim(ptr noundef nonnull align 8 dereferenceable(32) %7, ptr noundef %70, ptr noundef %77)
  br label %78

78:                                               ; preds = %69
  %79 = load i32, ptr %5, align 4
  %80 = add i32 %79, 1
  store i32 %80, ptr %5, align 4
  br label %48, !llvm.loop !26

81:                                               ; preds = %54
  call void @llvm.lifetime.start.p0(i64 4, ptr %6) #19
  store i32 0, ptr %6, align 4
  br label %82

82:                                               ; preds = %112, %81
  %83 = load i32, ptr %6, align 4
  %84 = load ptr, ptr %4, align 8
  %85 = getelementptr inbounds nuw %struct.aiAnimation, ptr %84, i32 0, i32 7
  %86 = load i32, ptr %85, align 8
  %87 = icmp ult i32 %83, %86
  br i1 %87, label %89, label %88

88:                                               ; preds = %82
  call void @llvm.lifetime.end.p0(i64 4, ptr %6) #19
  br label %115

89:                                               ; preds = %82
  %90 = load ptr, ptr %4, align 8
  %91 = getelementptr inbounds nuw %struct.aiAnimation, ptr %90, i32 0, i32 8
  %92 = load ptr, ptr %91, align 8
  %93 = load i32, ptr %6, align 4
  %94 = zext i32 %93 to i64
  %95 = getelementptr inbounds nuw ptr, ptr %92, i64 %94
  %96 = load ptr, ptr %95, align 8
  %97 = icmp ne ptr %96, null
  br i1 %97, label %103, label %98

98:                                               ; preds = %89
  %99 = load i32, ptr %6, align 4
  %100 = load ptr, ptr %4, align 8
  %101 = getelementptr inbounds nuw %struct.aiAnimation, ptr %100, i32 0, i32 7
  %102 = load i32, ptr %101, align 8
  call void (ptr, ptr, ...) @_ZN6Assimp17ValidateDSProcess11ReportErrorEPKcz(ptr noundef nonnull align 8 dereferenceable(32) %7, ptr noundef @.str.58, i32 noundef %99, i32 noundef %102) #20
  unreachable

103:                                              ; preds = %89
  %104 = load ptr, ptr %4, align 8
  %105 = load ptr, ptr %4, align 8
  %106 = getelementptr inbounds nuw %struct.aiAnimation, ptr %105, i32 0, i32 8
  %107 = load ptr, ptr %106, align 8
  %108 = load i32, ptr %6, align 4
  %109 = zext i32 %108 to i64
  %110 = getelementptr inbounds nuw ptr, ptr %107, i64 %109
  %111 = load ptr, ptr %110, align 8
  call void @_ZN6Assimp17ValidateDSProcess8ValidateEPK11aiAnimationPK15aiMeshMorphAnim(ptr noundef nonnull align 8 dereferenceable(32) %7, ptr noundef %104, ptr noundef %111)
  br label %112

112:                                              ; preds = %103
  %113 = load i32, ptr %6, align 4
  %114 = add i32 %113, 1
  store i32 %114, ptr %6, align 4
  br label %82, !llvm.loop !27

115:                                              ; preds = %88
  br label %117

116:                                              ; preds = %14
  call void (ptr, ptr, ...) @_ZN6Assimp17ValidateDSProcess11ReportErrorEPKcz(ptr noundef nonnull align 8 dereferenceable(32) %7, ptr noundef @.str.59) #20
  unreachable

117:                                              ; preds = %115
  ret void
}