; Function Attrs: mustprogress uwtable
define hidden void @_ZN6Assimp17ValidateDSProcess8ValidateEPK11aiAnimation(ptr noundef nonnull readnone align 8 captures(none) dereferenceable(32) %0, ptr noundef readonly captures(none) %1) local_unnamed_addr #7 align 2 {
  %3 = load i32, ptr %1, align 4
  %4 = icmp ugt i32 %3, 1024
  br i1 %4, label %7, label %.preheader.i

.preheader.i:                                     ; preds = %2
  %.0.ptr14.i = getelementptr inbounds nuw i8, ptr %1, i64 4
  %5 = load i8, ptr %.0.ptr14.i, align 1
  %6 = icmp eq i8 %5, 0
  br i1 %6, label %._crit_edge.i, label %.lr.ph.i

7:                                                ; preds = %2
  tail call void (ptr, ptr, ...) @_ZN6Assimp17ValidateDSProcess11ReportErrorEPKcz(ptr nonnull readnone align 8 poison, ptr noundef nonnull @.str.114, i32 noundef %3, i64 noundef 1024) #24
  unreachable

._crit_edge.loopexit.i:                           ; preds = %12
  %8 = trunc i64 %.0.add.i to i32
  %9 = add nsw i32 %8, -4
  br label %._crit_edge.i

._crit_edge.i:                                    ; preds = %._crit_edge.loopexit.i, %.preheader.i
  %.0.idx.lcssa.i = phi i32 [ 0, %.preheader.i ], [ %9, %._crit_edge.loopexit.i ]
  %.not12.i = icmp eq i32 %3, %.0.idx.lcssa.i
  br i1 %.not12.i, label %_ZN6Assimp17ValidateDSProcess8ValidateEPK8aiString.exit, label %10

10:                                               ; preds = %._crit_edge.i
  tail call void (ptr, ptr, ...) @_ZN6Assimp17ValidateDSProcess11ReportErrorEPKcz(ptr nonnull readnone align 8 poison, ptr noundef nonnull @.str.115) #24
  unreachable

.lr.ph.i:                                         ; preds = %.preheader.i, %12
  %.0.idx15.i = phi i64 [ %.0.add.i, %12 ], [ 4, %.preheader.i ]
  %exitcond.not.i = icmp eq i64 %.0.idx15.i, 1028
  br i1 %exitcond.not.i, label %11, label %12

11:                                               ; preds = %.lr.ph.i
  tail call void (ptr, ptr, ...) @_ZN6Assimp17ValidateDSProcess11ReportErrorEPKcz(ptr nonnull readnone align 8 poison, ptr noundef nonnull @.str.116) #24
  unreachable

12:                                               ; preds = %.lr.ph.i
  %.0.add.i = add nuw nsw i64 %.0.idx15.i, 1
  %.0.ptr.i = getelementptr inbounds nuw i8, ptr %1, i64 %.0.add.i
  %13 = load i8, ptr %.0.ptr.i, align 1
  %14 = icmp eq i8 %13, 0
  br i1 %14, label %._crit_edge.loopexit.i, label %.lr.ph.i, !llvm.loop !8

_ZN6Assimp17ValidateDSProcess8ValidateEPK8aiString.exit: ; preds = %._crit_edge.i
  %15 = getelementptr inbounds nuw i8, ptr %1, i64 1048
  %16 = load i32, ptr %15, align 8
  %.not = icmp eq i32 %16, 0
  br i1 %.not, label %17, label %.thread

17:                                               ; preds = %_ZN6Assimp17ValidateDSProcess8ValidateEPK8aiString.exit
  %18 = getelementptr inbounds nuw i8, ptr %1, i64 1080
  %19 = load i32, ptr %18, align 8
  %.not36 = icmp eq i32 %19, 0
  br i1 %.not36, label %58, label %20

20:                                               ; preds = %17
  %21 = getelementptr inbounds nuw i8, ptr %1, i64 1056
  br label %25

.thread:                                          ; preds = %_ZN6Assimp17ValidateDSProcess8ValidateEPK8aiString.exit
  %22 = getelementptr inbounds nuw i8, ptr %1, i64 1056
  %23 = load ptr, ptr %22, align 8
  %.not3743 = icmp eq ptr %23, null
  br i1 %.not3743, label %24, label %25

24:                                               ; preds = %.thread
  tail call void (ptr, ptr, ...) @_ZN6Assimp17ValidateDSProcess11ReportErrorEPKcz(ptr nonnull align 8 poison, ptr noundef nonnull @.str.55, i32 noundef %16) #24
  unreachable

25:                                               ; preds = %20, %.thread
  %26 = phi ptr [ %22, %.thread ], [ %21, %20 ]
  %27 = getelementptr inbounds nuw i8, ptr %1, i64 1088
  %28 = load ptr, ptr %27, align 8
  %.not39 = icmp eq ptr %28, null
  br i1 %.not39, label %29, label %33

29:                                               ; preds = %25
  %30 = getelementptr inbounds nuw i8, ptr %1, i64 1080
  %31 = load i32, ptr %30, align 8
  %.not40 = icmp eq i32 %31, 0
  br i1 %.not40, label %33, label %32

32:                                               ; preds = %29
  tail call void (ptr, ptr, ...) @_ZN6Assimp17ValidateDSProcess11ReportErrorEPKcz(ptr nonnull align 8 poison, ptr noundef nonnull @.str.56, i32 noundef %31) #24
  unreachable

33:                                               ; preds = %29, %25
  br i1 %.not, label %.preheader, label %.lr.ph.preheader

.lr.ph.preheader:                                 ; preds = %33
  %34 = load ptr, ptr %26, align 8
  %35 = load ptr, ptr %34, align 8
  %.not4273 = icmp eq ptr %35, null
  br i1 %.not4273, label %44, label %.lr.ph75

.preheader:                                       ; preds = %.lr.ph75, %33
  %36 = getelementptr inbounds nuw i8, ptr %1, i64 1080
  %37 = load i32, ptr %36, align 8
  %.not53 = icmp eq i32 %37, 0
  br i1 %.not53, label %._crit_edge, label %.lr.ph51.preheader

.lr.ph51.preheader:                               ; preds = %.preheader
  %38 = load ptr, ptr %27, align 8
  %39 = load ptr, ptr %38, align 8
  %.not4177 = icmp eq ptr %39, null
  br i1 %.not4177, label %53, label %.lr.ph79

.lr.ph:                                           ; preds = %.lr.ph75
  %40 = load ptr, ptr %26, align 8
  %41 = getelementptr inbounds nuw ptr, ptr %40, i64 %indvars.iv.next
  %42 = load ptr, ptr %41, align 8
  %.not42 = icmp eq ptr %42, null
  br i1 %.not42, label %.lr.ph._crit_edge, label %.lr.ph75, !llvm.loop !23

.lr.ph._crit_edge:                                ; preds = %.lr.ph
  %43 = trunc nuw i64 %indvars.iv.next to i32
  br label %44

44:                                               ; preds = %.lr.ph._crit_edge, %.lr.ph.preheader
  %indvars.iv.lcssa = phi i32 [ %43, %.lr.ph._crit_edge ], [ 0, %.lr.ph.preheader ]
  %.lcssa70 = phi i32 [ %46, %.lr.ph._crit_edge ], [ %16, %.lr.ph.preheader ]
  tail call void (ptr, ptr, ...) @_ZN6Assimp17ValidateDSProcess11ReportErrorEPKcz(ptr nonnull align 8 poison, ptr noundef nonnull @.str.57, i32 noundef %indvars.iv.lcssa, i32 noundef %.lcssa70) #24
  unreachable

.lr.ph75:                                         ; preds = %.lr.ph.preheader, %.lr.ph
  %45 = phi ptr [ %42, %.lr.ph ], [ %35, %.lr.ph.preheader ]
  %indvars.iv74 = phi i64 [ %indvars.iv.next, %.lr.ph ], [ 0, %.lr.ph.preheader ]
  tail call void @_ZN6Assimp17ValidateDSProcess8ValidateEPK11aiAnimationPK10aiNodeAnim(ptr nonnull align 8 poison, ptr noundef nonnull %1, ptr noundef nonnull %45)
  %indvars.iv.next = add nuw nsw i64 %indvars.iv74, 1
  %46 = load i32, ptr %15, align 8
  %47 = zext i32 %46 to i64
  %48 = icmp samesign ult i64 %indvars.iv.next, %47
  br i1 %48, label %.lr.ph, label %.preheader, !llvm.loop !23

._crit_edge:                                      ; preds = %.lr.ph79, %.preheader
  ret void

.lr.ph51:                                         ; preds = %.lr.ph79
  %49 = load ptr, ptr %27, align 8
  %50 = getelementptr inbounds nuw ptr, ptr %49, i64 %indvars.iv.next61
  %51 = load ptr, ptr %50, align 8
  %.not41 = icmp eq ptr %51, null
  br i1 %.not41, label %.lr.ph51._crit_edge, label %.lr.ph79, !llvm.loop !24

.lr.ph51._crit_edge:                              ; preds = %.lr.ph51
  %52 = trunc nuw i64 %indvars.iv.next61 to i32
  br label %53

53:                                               ; preds = %.lr.ph51._crit_edge, %.lr.ph51.preheader
  %indvars.iv60.lcssa = phi i32 [ %52, %.lr.ph51._crit_edge ], [ 0, %.lr.ph51.preheader ]
  %.lcssa = phi i32 [ %55, %.lr.ph51._crit_edge ], [ %37, %.lr.ph51.preheader ]
  tail call void (ptr, ptr, ...) @_ZN6Assimp17ValidateDSProcess11ReportErrorEPKcz(ptr nonnull align 8 poison, ptr noundef nonnull @.str.58, i32 noundef %indvars.iv60.lcssa, i32 noundef %.lcssa) #24
  unreachable

.lr.ph79:                                         ; preds = %.lr.ph51.preheader, %.lr.ph51
  %54 = phi ptr [ %51, %.lr.ph51 ], [ %39, %.lr.ph51.preheader ]
  %indvars.iv6078 = phi i64 [ %indvars.iv.next61, %.lr.ph51 ], [ 0, %.lr.ph51.preheader ]
  tail call void @_ZN6Assimp17ValidateDSProcess8ValidateEPK11aiAnimationPK15aiMeshMorphAnim(ptr nonnull align 8 poison, ptr noundef nonnull %1, ptr noundef nonnull %54)
  %indvars.iv.next61 = add nuw nsw i64 %indvars.iv6078, 1
  %55 = load i32, ptr %36, align 8
  %56 = zext i32 %55 to i64
  %57 = icmp samesign ult i64 %indvars.iv.next61, %56
  br i1 %57, label %.lr.ph51, label %._crit_edge, !llvm.loop !24

58:                                               ; preds = %17
  tail call void (ptr, ptr, ...) @_ZN6Assimp17ValidateDSProcess11ReportErrorEPKcz(ptr nonnull align 8 poison, ptr noundef nonnull @.str.59) #24
  unreachable
}